target datalayout = "e-m:e-p270:32:32-p271:32:32-p272:64:64-i64:64-i128:128-f80:128-n8:16:32:64-S128"
target triple = "x86_64-pc-linux-gnu"

%struct.anon.0 = type { i8, i8 }
%struct.rb_random_interface_t = type { i64, %struct.anon.0, i16, ptr, ptr, ptr, ptr, ptr }
%struct.timespec = type { i64, i64 }
%struct.rbimpl_size_mul_overflow_tag = type { i8, i64 }

@fill_random_bytes_syscall.try_syscall = internal global i32 1, align 4
@fill_random_seed.n = internal global i32 0, align 4

; Function Attrs: inlinehint nounwind sspstrong memory(argmem: readwrite, inaccessiblemem: readwrite) uwtable
define internal void @rbimpl_atomic_set(ptr noundef nonnull %0, i32 noundef %1) #12 {
  %3 = alloca ptr, align 8
  %4 = alloca i32, align 4
  %5 = alloca i32, align 4
  store ptr %0, ptr %3, align 8, !tbaa !59
  store i32 %1, ptr %4, align 4, !tbaa !19
  %6 = load ptr, ptr %3, align 8, !tbaa !59
  %7 = load i32, ptr %4, align 4, !tbaa !19
  store i32 %7, ptr %5, align 4, !tbaa !19
  %8 = load i32, ptr %5, align 4
  store atomic volatile i32 %8, ptr %6 seq_cst, align 4
  ret void
}

; Function Attrs: nounwind sspstrong uwtable
define internal i32 @fill_random_bytes_urandom(ptr noundef %0, i64 noundef %1) #0 {
  %3 = alloca i32, align 4
  %4 = alloca ptr, align 8
  %5 = alloca i64, align 8
  %6 = alloca ptr, align 8
  %7 = alloca i64, align 8
  %8 = alloca i32, align 4
  store ptr %0, ptr %4, align 8, !tbaa !20
  store i64 %1, ptr %5, align 8, !tbaa !26
  call void @llvm.lifetime.start.p0(i64 8, ptr %6) #24
  %9 = load ptr, ptr %4, align 8, !tbaa !20
  store ptr %9, ptr %6, align 8, !tbaa !29
  br label %10

10:                                               ; preds = %35, %2
  %11 = load i64, ptr %5, align 8, !tbaa !26
  %12 = icmp ne i64 %11, 0
  br i1 %12, label %13, label %36

13:                                               ; preds = %10
  call void @llvm.lifetime.start.p0(i64 8, ptr %7) #24
  %14 = load i64, ptr %5, align 8, !tbaa !26
  %15 = icmp ult i64 %14, 256
  br i1 %15, label %16, label %18

16:                                               ; preds = %13
  %17 = load i64, ptr %5, align 8, !tbaa !26
  br label %19

18:                                               ; preds = %13
  br label %19

19:                                               ; preds = %18, %16
  %20 = phi i64 [ %17, %16 ], [ 256, %18 ]
  store i64 %20, ptr %7, align 8, !tbaa !26
  %21 = load ptr, ptr %6, align 8, !tbaa !29
  %22 = load i64, ptr %7, align 8, !tbaa !26
  %23 = call i32 @getentropy(ptr noundef %21, i64 noundef %22)
  %24 = icmp ne i32 %23, 0
  br i1 %24, label %25, label %26

25:                                               ; preds = %19
  store i32 -1, ptr %3, align 4
  store i32 1, ptr %8, align 4
  br label %33

26:                                               ; preds = %19
  %27 = load i64, ptr %7, align 8, !tbaa !26
  %28 = load ptr, ptr %6, align 8, !tbaa !29
  %29 = getelementptr i8, ptr %28, i64 %27
  store ptr %29, ptr %6, align 8, !tbaa !29
  %30 = load i64, ptr %7, align 8, !tbaa !26
  %31 = load i64, ptr %5, align 8, !tbaa !26
  %32 = sub i64 %31, %30
  store i64 %32, ptr %5, align 8, !tbaa !26
  store i32 0, ptr %8, align 4
  br label %33

33:                                               ; preds = %26, %25
  call void @llvm.lifetime.end.p0(i64 8, ptr %7) #24
  %34 = load i32, ptr %8, align 4
  switch i32 %34, label %37 [
    i32 0, label %35
  ]

35:                                               ; preds = %33
  br label %10, !llvm.loop !31

36:                                               ; preds = %10
  store i32 0, ptr %3, align 4
  store i32 1, ptr %8, align 4
  br label %37

37:                                               ; preds = %36, %33
  call void @llvm.lifetime.end.p0(i64 8, ptr %6) #24
  %38 = load i32, ptr %3, align 4
  ret i32 %38
}

; Function Attrs: nounwind sspstrong uwtable
define internal i32 @fill_random_bytes_syscall(ptr noundef %0, i64 noundef %1, i32 noundef %2) #0 {
  %4 = alloca i32, align 4
  %5 = alloca ptr, align 8
  %6 = alloca i64, align 8
  %7 = alloca i32, align 4
  %8 = alloca i64, align 8
  %9 = alloca i32, align 4
  %10 = alloca i64, align 8
  %11 = alloca i32, align 4
  store ptr %0, ptr %5, align 8, !tbaa !20
  store i64 %1, ptr %6, align 8, !tbaa !26
  store i32 %2, ptr %7, align 4, !tbaa !19
  %12 = load i32, ptr @fill_random_bytes_syscall.try_syscall, align 4, !tbaa !19
  %13 = icmp ne i32 %12, 0
  br i1 %13, label %14, label %45

14:                                               ; preds = %3
  call void @llvm.lifetime.start.p0(i64 8, ptr %8) #24
  store i64 0, ptr %8, align 8, !tbaa !26
  call void @llvm.lifetime.start.p0(i64 4, ptr %9) #24
  store i32 0, ptr %9, align 4, !tbaa !19
  %15 = load i32, ptr %7, align 4, !tbaa !19
  %16 = icmp ne i32 %15, 0
  br i1 %16, label %18, label %17

17:                                               ; preds = %14
  store i32 1, ptr %9, align 4, !tbaa !19
  br label %18

18:                                               ; preds = %17, %14
  br label %19

19:                                               ; preds = %39, %18
  %20 = call ptr @rb_errno_ptr()
  store i32 0, ptr %20, align 4, !tbaa !19
  call void @llvm.lifetime.start.p0(i64 8, ptr %10) #24
  %21 = load ptr, ptr %5, align 8, !tbaa !20
  %22 = load i64, ptr %8, align 8, !tbaa !26
  %23 = getelementptr i8, ptr %21, i64 %22
  %24 = load i64, ptr %6, align 8, !tbaa !26
  %25 = load i64, ptr %8, align 8, !tbaa !26
  %26 = sub i64 %24, %25
  %27 = load i32, ptr %9, align 4, !tbaa !19
  %28 = call i64 @getrandom(ptr noundef %23, i64 noundef %26, i32 noundef %27)
  store i64 %28, ptr %10, align 8, !tbaa !26
  %29 = load i64, ptr %10, align 8, !tbaa !26
  %30 = icmp eq i64 %29, -1
  br i1 %30, label %31, label %32

31:                                               ; preds = %19
  call void @rbimpl_atomic_set(ptr noundef @fill_random_bytes_syscall.try_syscall, i32 noundef 0) #25
  store i32 -1, ptr %4, align 4
  store i32 1, ptr %11, align 4
  br label %36

32:                                               ; preds = %19
  %33 = load i64, ptr %10, align 8, !tbaa !26
  %34 = load i64, ptr %8, align 8, !tbaa !26
  %35 = add i64 %34, %33
  store i64 %35, ptr %8, align 8, !tbaa !26
  store i32 0, ptr %11, align 4
  br label %36

36:                                               ; preds = %32, %31
  call void @llvm.lifetime.end.p0(i64 8, ptr %10) #24
  %37 = load i32, ptr %11, align 4
  switch i32 %37, label %44 [
    i32 0, label %38
  ]

38:                                               ; preds = %36
  br label %39

39:                                               ; preds = %38
  %40 = load i64, ptr %8, align 8, !tbaa !26
  %41 = load i64, ptr %6, align 8, !tbaa !26
  %42 = icmp ult i64 %40, %41
  br i1 %42, label %19, label %43, !llvm.loop !27

43:                                               ; preds = %39
  store i32 0, ptr %4, align 4
  store i32 1, ptr %11, align 4
  br label %44

44:                                               ; preds = %43, %36
  call void @llvm.lifetime.end.p0(i64 4, ptr %9) #24
  call void @llvm.lifetime.end.p0(i64 8, ptr %8) #24
  br label %46

45:                                               ; preds = %3
  store i32 -1, ptr %4, align 4
  br label %46

46:                                               ; preds = %45, %44
  %47 = load i32, ptr %4, align 4
  ret i32 %47
}

; Function Attrs: inlinehint nounwind sspstrong willreturn memory(none) uwtable
define internal { i8, i64 } @rbimpl_size_mul_overflow(i64 noundef %0, i64 noundef %1) #8 {
  %3 = alloca %struct.rbimpl_size_mul_overflow_tag, align 8
  %4 = alloca i64, align 8
  %5 = alloca i64, align 8
  store i64 %0, ptr %4, align 8, !tbaa !26
  store i64 %1, ptr %5, align 8, !tbaa !26
  call void @llvm.memset.p0.i64(ptr align 8 %3, i8 0, i64 16, i1 false)
  %6 = load i64, ptr %4, align 8, !tbaa !26
  %7 = load i64, ptr %5, align 8, !tbaa !26
  %8 = getelementptr inbounds nuw %struct.rbimpl_size_mul_overflow_tag, ptr %3, i32 0, i32 1
  %9 = call { i64, i1 } @llvm.umul.with.overflow.i64(i64 %6, i64 %7)
  %10 = extractvalue { i64, i1 } %9, 1
  %11 = extractvalue { i64, i1 } %9, 0
  store i64 %11, ptr %8, align 8
  %12 = getelementptr inbounds nuw %struct.rbimpl_size_mul_overflow_tag, ptr %3, i32 0, i32 0
  %13 = zext i1 %10 to i8
  store i8 %13, ptr %12, align 8, !tbaa !80
  %14 = load { i8, i64 }, ptr %3, align 8
  ret { i8, i64 } %14
}

; Function Attrs: inlinehint nounwind sspstrong memory(argmem: readwrite, inaccessiblemem: readwrite) uwtable
define internal i32 @rbimpl_atomic_fetch_add(ptr noundef nonnull %0, i32 noundef %1) #12 {
  %3 = alloca ptr, align 8
  %4 = alloca i32, align 4
  %5 = alloca i32, align 4
  %6 = alloca i32, align 4
  store ptr %0, ptr %3, align 8, !tbaa !59
  store i32 %1, ptr %4, align 4, !tbaa !19
  %7 = load ptr, ptr %3, align 8, !tbaa !59
  %8 = load i32, ptr %4, align 4, !tbaa !19
  store i32 %8, ptr %5, align 4, !tbaa !19
  %9 = load i32, ptr %5, align 4
  %10 = atomicrmw volatile add ptr %7, i32 %9 seq_cst, align 4
  store i32 %10, ptr %6, align 4
  %11 = load i32, ptr %6, align 4, !tbaa !19
  ret i32 %11
}

; Function Attrs: alwaysinline nounwind
define internal ptr @memset.inline(ptr nonnull %0, i32 %1, i64 %2) #17 {
  %4 = alloca ptr, align 8
  %5 = alloca i32, align 4
  %6 = alloca i64, align 8
  store ptr %0, ptr %4, align 8, !tbaa !20
  store i32 %1, ptr %5, align 4, !tbaa !19
  store i64 %2, ptr %6, align 8, !tbaa !26
  %7 = load ptr, ptr %4, align 8, !tbaa !20
  %8 = load i32, ptr %5, align 4, !tbaa !19
  %9 = load i64, ptr %6, align 8, !tbaa !26
  %10 = load ptr, ptr %4, align 8, !tbaa !20
  %11 = call i64 @llvm.objectsize.i64.p0(ptr %10, i1 false, i1 true, i1 false)
  %12 = call ptr @__memset_chk(ptr noundef %7, i32 noundef %8, i64 noundef %9, i64 noundef %11) #24
  ret ptr %12
}

; Function Attrs: nounwind sspstrong uwtable
define hidden i32 @ruby_fill_random_bytes(ptr noundef %0, i64 noundef %1, i32 noundef %2) #0 {
  %4 = alloca i32, align 4
  %5 = alloca ptr, align 8
  %6 = alloca i64, align 8
  %7 = alloca i32, align 4
  %8 = alloca i32, align 4
  %9 = alloca i32, align 4
  store ptr %0, ptr %5, align 8, !tbaa !20
  store i64 %1, ptr %6, align 8, !tbaa !26
  store i32 %2, ptr %7, align 4, !tbaa !19
  call void @llvm.lifetime.start.p0(i64 4, ptr %8) #24
  %10 = load ptr, ptr %5, align 8, !tbaa !20
  %11 = load i64, ptr %6, align 8, !tbaa !26
  %12 = load i32, ptr %7, align 4, !tbaa !19
  %13 = call i32 @fill_random_bytes_syscall(ptr noundef %10, i64 noundef %11, i32 noundef %12)
  store i32 %13, ptr %8, align 4, !tbaa !19
  %14 = load i32, ptr %8, align 4, !tbaa !19
  %15 = icmp eq i32 %14, 0
  br i1 %15, label %16, label %18

16:                                               ; preds = %3
  %17 = load i32, ptr %8, align 4, !tbaa !19
  store i32 %17, ptr %4, align 4
  store i32 1, ptr %9, align 4
  br label %22

18:                                               ; preds = %3
  %19 = load ptr, ptr %5, align 8, !tbaa !20
  %20 = load i64, ptr %6, align 8, !tbaa !26
  %21 = call i32 @fill_random_bytes_urandom(ptr noundef %19, i64 noundef %20)
  store i32 %21, ptr %4, align 4
  store i32 1, ptr %9, align 4
  br label %22

22:                                               ; preds = %18, %16
  call void @llvm.lifetime.end.p0(i64 4, ptr %8) #24
  %23 = load i32, ptr %4, align 4
  ret i32 %23
}

; Function Attrs: inlinehint nounwind sspstrong uwtable
define internal i64 @rbimpl_size_mul_or_raise(i64 noundef %0, i64 noundef %1) #4 {
  %3 = alloca i64, align 8
  %4 = alloca i64, align 8
  %5 = alloca %struct.rbimpl_size_mul_overflow_tag, align 8
  store i64 %0, ptr %3, align 8, !tbaa !26
  store i64 %1, ptr %4, align 8, !tbaa !26
  call void @llvm.lifetime.start.p0(i64 16, ptr %5) #24
  %6 = load i64, ptr %3, align 8, !tbaa !26
  %7 = load i64, ptr %4, align 8, !tbaa !26
  %8 = call { i8, i64 } @rbimpl_size_mul_overflow(i64 noundef %6, i64 noundef %7) #28
  %9 = getelementptr inbounds nuw { i8, i64 }, ptr %5, i32 0, i32 0
  %10 = extractvalue { i8, i64 } %8, 0
  store i8 %10, ptr %9, align 8
  %11 = getelementptr inbounds nuw { i8, i64 }, ptr %5, i32 0, i32 1
  %12 = extractvalue { i8, i64 } %8, 1
  store i64 %12, ptr %11, align 8
  %13 = getelementptr inbounds nuw %struct.rbimpl_size_mul_overflow_tag, ptr %5, i32 0, i32 0
  %14 = load i8, ptr %13, align 8, !tbaa !80, !range !62, !noundef !63
  %15 = trunc i8 %14 to i1
  %16 = xor i1 %15, true
  %17 = xor i1 %16, true
  %18 = xor i1 %17, true
  %19 = zext i1 %18 to i32
  %20 = sext i32 %19 to i64
  %21 = call i64 @llvm.expect.i64(i64 %20, i64 1)
  %22 = icmp ne i64 %21, 0
  br i1 %22, label %23, label %26

23:                                               ; preds = %2
  %24 = getelementptr inbounds nuw %struct.rbimpl_size_mul_overflow_tag, ptr %5, i32 0, i32 1
  %25 = load i64, ptr %24, align 8, !tbaa !82
  call void @llvm.lifetime.end.p0(i64 16, ptr %5) #24
  ret i64 %25

26:                                               ; preds = %2
  %27 = load i64, ptr %3, align 8, !tbaa !26
  %28 = load i64, ptr %4, align 8, !tbaa !26
  call void @ruby_malloc_size_overflow(i64 noundef %27, i64 noundef %28) #27
  unreachable
}

; Function Attrs: alwaysinline nounwind sspstrong uwtable
define available_externally void @explicit_bzero(ptr noundef nonnull %0, i64 noundef %1) #5 {
  %3 = alloca ptr, align 8
  %4 = alloca i64, align 8
  store ptr %0, ptr %3, align 8, !tbaa !20
  store i64 %1, ptr %4, align 8, !tbaa !26
  %5 = load ptr, ptr %3, align 8, !tbaa !20
  %6 = load i64, ptr %4, align 8, !tbaa !26
  %7 = load ptr, ptr %3, align 8, !tbaa !20
  %8 = call i64 @llvm.objectsize.i64.p0(ptr %7, i1 false, i1 true, i1 false)
  call void @__explicit_bzero_chk(ptr noundef %5, i64 noundef %6, i64 noundef %8) #24
  ret void
}

; Function Attrs: nounwind sspstrong uwtable
define internal i64 @make_seed_value(ptr noundef %0, i64 noundef %1) #0 {
  %3 = alloca ptr, align 8
  %4 = alloca i64, align 8
  %5 = alloca i64, align 8
  store ptr %0, ptr %3, align 8, !tbaa !59
  store i64 %1, ptr %4, align 8, !tbaa !26
  call void @llvm.lifetime.start.p0(i64 8, ptr %5) #24
  %6 = load ptr, ptr %3, align 8, !tbaa !59
  %7 = load i64, ptr %4, align 8, !tbaa !26
  %8 = sub i64 %7, 1
  %9 = getelementptr i32, ptr %6, i64 %8
  %10 = load i32, ptr %9, align 4, !tbaa !19
  %11 = icmp ule i32 %10, 1
  br i1 %11, label %12, label %17

12:                                               ; preds = %2
  %13 = load ptr, ptr %3, align 8, !tbaa !59
  %14 = load i64, ptr %4, align 8, !tbaa !26
  %15 = add i64 %14, 1
  store i64 %15, ptr %4, align 8, !tbaa !26
  %16 = getelementptr i32, ptr %13, i64 %14
  store i32 1, ptr %16, align 4, !tbaa !19
  br label %17

17:                                               ; preds = %12, %2
  %18 = load ptr, ptr %3, align 8, !tbaa !59
  %19 = load i64, ptr %4, align 8, !tbaa !26
  %20 = call i64 @rb_integer_unpack(ptr noundef %18, i64 noundef %19, i64 noundef 4, i64 noundef 0, i32 noundef 66)
  store i64 %20, ptr %5, align 8, !tbaa !26
  %21 = load i64, ptr %5, align 8, !tbaa !26
  call void @llvm.lifetime.end.p0(i64 8, ptr %5) #24
  ret i64 %21
}

; Function Attrs: nounwind sspstrong uwtable
define internal void @fill_random_seed(ptr noundef %0, i64 noundef %1, i1 noundef zeroext %2) #0 {
  %4 = alloca ptr, align 8
  %5 = alloca i64, align 8
  %6 = alloca i8, align 1
  %7 = alloca %struct.timespec, align 8
  %8 = alloca i64, align 8
  %9 = alloca i32, align 4
  store ptr %0, ptr %4, align 8, !tbaa !59
  store i64 %1, ptr %5, align 8, !tbaa !26
  %10 = zext i1 %2 to i8
  store i8 %10, ptr %6, align 1, !tbaa !60
  call void @llvm.lifetime.start.p0(i64 16, ptr %7) #24
  call void @llvm.lifetime.start.p0(i64 8, ptr %8) #24
  %11 = load i64, ptr %5, align 8, !tbaa !26
  %12 = mul i64 %11, 4
  store i64 %12, ptr %8, align 8, !tbaa !26
  %13 = load i8, ptr %6, align 1, !tbaa !60, !range !62, !noundef !63
  %14 = trunc i8 %13 to i1
  br i1 %14, label %15, label %19

15:                                               ; preds = %3
  %16 = load ptr, ptr %4, align 8, !tbaa !59
  %17 = load i64, ptr %8, align 8, !tbaa !26
  %18 = call i32 @ruby_fill_random_bytes(ptr noundef %16, i64 noundef %17, i32 noundef 0)
  store i32 1, ptr %9, align 4
  br label %68

19:                                               ; preds = %3
  %20 = load ptr, ptr %4, align 8, !tbaa !59
  %21 = load i64, ptr %8, align 8, !tbaa !26
  %22 = call ptr @memset.inline(ptr noundef %20, i32 noundef 0, i64 noundef %21) #24
  %23 = call i32 @clock_gettime(i32 noundef 0, ptr noundef %7) #24
  %24 = getelementptr inbounds nuw %struct.timespec, ptr %7, i32 0, i32 1
  %25 = load i64, ptr %24, align 8, !tbaa !64
  %26 = load ptr, ptr %4, align 8, !tbaa !59
  %27 = getelementptr i32, ptr %26, i64 0
  %28 = load i32, ptr %27, align 4, !tbaa !19
  %29 = zext i32 %28 to i64
  %30 = xor i64 %29, %25
  %31 = trunc i64 %30 to i32
  store i32 %31, ptr %27, align 4, !tbaa !19
  %32 = getelementptr inbounds nuw %struct.timespec, ptr %7, i32 0, i32 0
  %33 = load i64, ptr %32, align 8, !tbaa !66
  %34 = trunc i64 %33 to i32
  %35 = load ptr, ptr %4, align 8, !tbaa !59
  %36 = getelementptr i32, ptr %35, i64 1
  %37 = load i32, ptr %36, align 4, !tbaa !19
  %38 = xor i32 %37, %34
  store i32 %38, ptr %36, align 4, !tbaa !19
  %39 = getelementptr inbounds nuw %struct.timespec, ptr %7, i32 0, i32 0
  %40 = load i64, ptr %39, align 8, !tbaa !66
  %41 = ashr i64 %40, 32
  %42 = trunc i64 %41 to i32
  %43 = load ptr, ptr %4, align 8, !tbaa !59
  %44 = getelementptr i32, ptr %43, i64 0
  %45 = load i32, ptr %44, align 4, !tbaa !19
  %46 = xor i32 %45, %42
  store i32 %46, ptr %44, align 4, !tbaa !19
  %47 = call i32 @getpid() #24
  %48 = call i32 @rbimpl_atomic_fetch_add(ptr noundef @fill_random_seed.n, i32 noundef 1) #25
  %49 = shl i32 %48, 16
  %50 = xor i32 %47, %49
  %51 = load ptr, ptr %4, align 8, !tbaa !59
  %52 = getelementptr i32, ptr %51, i64 2
  %53 = load i32, ptr %52, align 4, !tbaa !19
  %54 = xor i32 %53, %50
  store i32 %54, ptr %52, align 4, !tbaa !19
  %55 = ptrtoint ptr %4 to i64
  %56 = trunc i64 %55 to i32
  %57 = load ptr, ptr %4, align 8, !tbaa !59
  %58 = getelementptr i32, ptr %57, i64 3
  %59 = load i32, ptr %58, align 4, !tbaa !19
  %60 = xor i32 %59, %56
  store i32 %60, ptr %58, align 4, !tbaa !19
  %61 = ptrtoint ptr %4 to i64
  %62 = lshr i64 %61, 32
  %63 = trunc i64 %62 to i32
  %64 = load ptr, ptr %4, align 8, !tbaa !59
  %65 = getelementptr i32, ptr %64, i64 2
  %66 = load i32, ptr %65, align 4, !tbaa !19
  %67 = xor i32 %66, %63
  store i32 %67, ptr %65, align 4, !tbaa !19
  store i32 0, ptr %9, align 4
  br label %68

68:                                               ; preds = %19, %15
  call void @llvm.lifetime.end.p0(i64 8, ptr %8) #24
  call void @llvm.lifetime.end.p0(i64 16, ptr %7) #24
  %69 = load i32, ptr %9, align 4
  switch i32 %69, label %71 [
    i32 0, label %70
    i32 1, label %70
  ]

70:                                               ; preds = %68, %68
  ret void

71:                                               ; preds = %68
  unreachable
}

; Function Attrs: inlinehint nounwind sspstrong uwtable
define internal ptr @rb_alloc_tmp_buffer2(ptr noundef %0, i64 noundef %1, i64 noundef %2) #4 {
  %4 = alloca ptr, align 8
  %5 = alloca i64, align 8
  %6 = alloca i64, align 8
  %7 = alloca i64, align 8
  %8 = alloca i64, align 8
  store ptr %0, ptr %4, align 8, !tbaa !55
  store i64 %1, ptr %5, align 8, !tbaa !26
  store i64 %2, ptr %6, align 8, !tbaa !26
  call void @llvm.lifetime.start.p0(i64 8, ptr %7) #24
  %9 = load i64, ptr %5, align 8, !tbaa !26
  %10 = load i64, ptr %6, align 8, !tbaa !26
  %11 = call i64 @rbimpl_size_mul_or_raise(i64 noundef %9, i64 noundef %10)
  store i64 %11, ptr %7, align 8, !tbaa !26
  call void @llvm.lifetime.start.p0(i64 8, ptr %8) #24
  %12 = load i64, ptr %7, align 8, !tbaa !26
  %13 = add i64 %12, 8
  %14 = sub i64 %13, 1
  %15 = udiv i64 %14, 8
  store i64 %15, ptr %8, align 8, !tbaa !26
  %16 = load ptr, ptr %4, align 8, !tbaa !55
  %17 = load i64, ptr %7, align 8, !tbaa !26
  %18 = load i64, ptr %8, align 8, !tbaa !26
  %19 = call noalias nonnull ptr @rb_alloc_tmp_buffer_with_count(ptr noundef %16, i64 noundef %17, i64 noundef %18) #30
  call void @llvm.lifetime.end.p0(i64 8, ptr %8) #24
  call void @llvm.lifetime.end.p0(i64 8, ptr %7) #24
  ret ptr %19
}

; Function Attrs: nounwind sspstrong uwtable
define internal i64 @rand_init_default(ptr noundef %0, ptr noundef %1) #0 {
  %3 = alloca ptr, align 8
  %4 = alloca ptr, align 8
  %5 = alloca i64, align 8
  %6 = alloca i64, align 8
  %7 = alloca i64, align 8
  %8 = alloca ptr, align 8
  store ptr %0, ptr %3, align 8, !tbaa !20
  store ptr %1, ptr %4, align 8, !tbaa !24
  call void @llvm.lifetime.start.p0(i64 8, ptr %5) #24
  call void @llvm.lifetime.start.p0(i64 8, ptr %6) #24
  store i64 0, ptr %6, align 8, !tbaa !26
  call void @llvm.lifetime.start.p0(i64 8, ptr %7) #24
  %9 = load ptr, ptr %3, align 8, !tbaa !20
  %10 = getelementptr inbounds nuw %struct.rb_random_interface_t, ptr %9, i32 0, i32 0
  %11 = load i64, ptr %10, align 8, !tbaa !104
  %12 = add i64 %11, 32
  %13 = sub i64 %12, 1
  %14 = udiv i64 %13, 32
  store i64 %14, ptr %7, align 8, !tbaa !26
  call void @llvm.lifetime.start.p0(i64 8, ptr %8) #24
  %15 = load i64, ptr %7, align 8, !tbaa !26
  %16 = add i64 %15, 1
  %17 = icmp ult i64 %16, 256
  br i1 %17, label %18, label %23

18:                                               ; preds = %2
  store i64 0, ptr %6, align 8, !tbaa !26
  %19 = load i64, ptr %7, align 8, !tbaa !26
  %20 = add i64 %19, 1
  %21 = mul i64 %20, 4
  %22 = alloca i8, i64 %21, align 16
  br label %27

23:                                               ; preds = %2
  %24 = load i64, ptr %7, align 8, !tbaa !26
  %25 = add i64 %24, 1
  %26 = call ptr @rb_alloc_tmp_buffer2(ptr noundef %6, i64 noundef %25, i64 noundef 4)
  br label %27

27:                                               ; preds = %23, %18
  %28 = phi ptr [ %22, %18 ], [ %26, %23 ]
  store ptr %28, ptr %8, align 8, !tbaa !59
  %29 = load ptr, ptr %8, align 8, !tbaa !59
  %30 = load i64, ptr %7, align 8, !tbaa !26
  call void @fill_random_seed(ptr noundef %29, i64 noundef %30, i1 noundef zeroext true)
  %31 = load ptr, ptr %3, align 8, !tbaa !20
  %32 = getelementptr inbounds nuw %struct.rb_random_interface_t, ptr %31, i32 0, i32 3
  %33 = load ptr, ptr %32, align 8, !tbaa !79
  %34 = load ptr, ptr %4, align 8, !tbaa !24
  %35 = load ptr, ptr %8, align 8, !tbaa !59
  %36 = load i64, ptr %7, align 8, !tbaa !26
  call void %33(ptr noundef %34, ptr noundef %35, i64 noundef %36)
  %37 = load ptr, ptr %8, align 8, !tbaa !59
  %38 = load i64, ptr %7, align 8, !tbaa !26
  %39 = call i64 @make_seed_value(ptr noundef %37, i64 noundef %38)
  store i64 %39, ptr %5, align 8, !tbaa !26
  %40 = load ptr, ptr %8, align 8, !tbaa !59
  %41 = load i64, ptr %7, align 8, !tbaa !26
  %42 = mul i64 %41, 4
  call void @explicit_bzero(ptr noundef %40, i64 noundef %42) #24
  call void @rb_free_tmp_buffer(ptr noundef %6)
  %43 = load i64, ptr %5, align 8, !tbaa !26
  call void @llvm.lifetime.end.p0(i64 8, ptr %8) #24
  call void @llvm.lifetime.end.p0(i64 8, ptr %7) #24
  call void @llvm.lifetime.end.p0(i64 8, ptr %6) #24
  call void @llvm.lifetime.end.p0(i64 8, ptr %5) #24
  ret i64 %43
}