; Function Attrs: nounwind sspstrong uwtable
define internal fastcc i64 @rand_init_default(ptr noundef nonnull readonly captures(none) %0, ptr noundef %1) unnamed_addr #0 {
  %3 = alloca i64, align 8
  call void @llvm.lifetime.start.p0(i64 8, ptr nonnull %3) #23
  store i64 0, ptr %3, align 8, !tbaa !43
  %4 = load i64, ptr %0, align 8, !tbaa !100
  %5 = add i64 %4, 31
  %6 = lshr i64 %5, 5
  %7 = add nuw nsw i64 %6, 1
  %8 = icmp ult i64 %5, 8160
  %9 = shl nuw nsw i64 %7, 2
  br i1 %8, label %10, label %rb_alloc_tmp_buffer2.exit

10:                                               ; preds = %2
  %11 = alloca i8, i64 %9, align 16
  br label %15

rb_alloc_tmp_buffer2.exit:                        ; preds = %2
  %12 = add nuw nsw i64 %9, 7
  %13 = lshr i64 %12, 3
  %14 = call noalias nonnull ptr @rb_alloc_tmp_buffer_with_count(ptr noundef nonnull %3, i64 noundef %9, i64 noundef %13) #28
  br label %15

15:                                               ; preds = %rb_alloc_tmp_buffer2.exit, %10
  %16 = phi ptr [ %11, %10 ], [ %14, %rb_alloc_tmp_buffer2.exit ]
  %17 = shl nuw nsw i64 %6, 2
  %18 = load i32, ptr @fill_random_bytes_syscall.try_syscall, align 4, !tbaa !22
  %.not.i.i.i = icmp eq i32 %18, 0
  br i1 %.not.i.i.i, label %.preheader, label %.preheader.i

.preheader:                                       ; preds = %.thread.i.i.i, %15
  br label %26

.preheader.i:                                     ; preds = %15, %23
  %.013.i.i.i = phi i64 [ %24, %23 ], [ 0, %15 ]
  %19 = call ptr @rb_errno_ptr() #23
  store i32 0, ptr %19, align 4, !tbaa !22
  %20 = getelementptr i8, ptr %16, i64 %.013.i.i.i
  %21 = sub i64 %17, %.013.i.i.i
  %22 = call i64 @getrandom(ptr noundef %20, i64 noundef %21, i32 noundef 1) #23
  %.not17.i.i.i = icmp eq i64 %22, -1
  br i1 %.not17.i.i.i, label %.thread.i.i.i, label %23

.thread.i.i.i:                                    ; preds = %.preheader.i
  store atomic volatile i32 0, ptr @fill_random_bytes_syscall.try_syscall seq_cst, align 4
  br label %.preheader

23:                                               ; preds = %.preheader.i
  %24 = add i64 %22, %.013.i.i.i
  %25 = icmp ult i64 %24, %17
  br i1 %25, label %.preheader.i, label %fill_random_seed.exit, !llvm.loop !27

26:                                               ; preds = %.preheader, %27
  %.014.i.i.i = phi i64 [ %31, %27 ], [ %17, %.preheader ]
  %.012.i.i.i = phi ptr [ %30, %27 ], [ %16, %.preheader ]
  %.not.i8.i.i = icmp eq i64 %.014.i.i.i, 0
  br i1 %.not.i8.i.i, label %fill_random_seed.exit, label %27

27:                                               ; preds = %26
  %28 = call i64 @llvm.umin.i64(i64 %.014.i.i.i, i64 256)
  %29 = call i32 @getentropy(ptr noundef %.012.i.i.i, i64 noundef %28) #23
  %.not16.i9.i.i = icmp eq i32 %29, 0
  %30 = getelementptr i8, ptr %.012.i.i.i, i64 %28
  %31 = sub i64 %.014.i.i.i, %28
  br i1 %.not16.i9.i.i, label %26, label %fill_random_seed.exit, !llvm.loop !28

fill_random_seed.exit:                            ; preds = %23, %26, %27
  %32 = getelementptr inbounds nuw i8, ptr %0, i64 16
  %33 = load ptr, ptr %32, align 8, !tbaa !90
  call void %33(ptr noundef %1, ptr noundef nonnull %16, i64 noundef %6) #23
  %34 = getelementptr i32, ptr %16, i64 %6
  %35 = getelementptr i8, ptr %34, i64 -4
  %36 = load i32, ptr %35, align 4, !tbaa !22
  %37 = icmp ult i32 %36, 2
  br i1 %37, label %38, label %make_seed_value.exit

38:                                               ; preds = %fill_random_seed.exit
  store i32 1, ptr %34, align 4, !tbaa !22
  br label %make_seed_value.exit

make_seed_value.exit:                             ; preds = %fill_random_seed.exit, %38
  %.0.i = phi i64 [ %7, %38 ], [ %6, %fill_random_seed.exit ]
  %39 = call i64 @rb_integer_unpack(ptr noundef nonnull %16, i64 noundef %.0.i, i64 noundef 4, i64 noundef 0, i32 noundef 66) #23
  call void @__explicit_bzero_chk(ptr noundef nonnull %16, i64 noundef %17, i64 noundef -1) #23
  call void @rb_free_tmp_buffer(ptr noundef nonnull %3) #23
  call void @llvm.lifetime.end.p0(i64 8, ptr nonnull %3) #23
  ret i64 %39
}